; Function Attrs: mustprogress nofree norecurse nosync nounwind memory(read, argmem: readwrite, inaccessiblemem: none) uwtable
define noundef zeroext i1 @_ZN11OpenImageIO6v3_1_07Strutil10parse_charERNS0_17basic_string_viewIcSt11char_traitsIcEEEcbb(ptr noundef nonnull align 8 captures(none) dereferenceable(16) %0, i8 noundef signext %1, i1 noundef zeroext %2, i1 noundef zeroext %3) local_unnamed_addr #14 personality ptr @__gxx_personality_v0 {
  %5 = load ptr, ptr %0, align 8, !tbaa !67
  %6 = getelementptr inbounds nuw i8, ptr %0, i64 8
  %7 = load i64, ptr %6, align 8, !tbaa !64
  %.not4.i = icmp eq i64 %7, 0
  br i1 %2, label %8, label %_ZN11OpenImageIO6v3_1_07Strutil15skip_whitespaceERNS0_17basic_string_viewIcSt11char_traitsIcEEE.exit

8:                                                ; preds = %4
  br i1 %.not4.i, label %_ZN11OpenImageIO6v3_1_07Strutil15skip_whitespaceERNS0_17basic_string_viewIcSt11char_traitsIcEEE.exit.thread, label %.lr.ph.i

.lr.ph.i:                                         ; preds = %8, %10
  %.sroa.9.1 = phi i64 [ %12, %10 ], [ %7, %8 ]
  %.sroa.0.1 = phi ptr [ %11, %10 ], [ %5, %8 ]
  %9 = load i8, ptr %.sroa.0.1, align 1, !tbaa !3
  switch i8 %9, label %_ZN11OpenImageIO6v3_1_07Strutil15skip_whitespaceERNS0_17basic_string_viewIcSt11char_traitsIcEEE.exit.thread13 [
    i8 32, label %10
    i8 10, label %10
    i8 9, label %10
    i8 13, label %10
  ]

10:                                               ; preds = %.lr.ph.i, %.lr.ph.i, %.lr.ph.i, %.lr.ph.i
  %11 = getelementptr inbounds nuw i8, ptr %.sroa.0.1, i64 1
  %12 = add i64 %.sroa.9.1, -1
  %.not.i = icmp eq i64 %12, 0
  br i1 %.not.i, label %_ZN11OpenImageIO6v3_1_07Strutil15skip_whitespaceERNS0_17basic_string_viewIcSt11char_traitsIcEEE.exit.thread, label %.lr.ph.i, !llvm.loop !79

_ZN11OpenImageIO6v3_1_07Strutil15skip_whitespaceERNS0_17basic_string_viewIcSt11char_traitsIcEEE.exit: ; preds = %4
  br i1 %.not4.i, label %_ZN11OpenImageIO6v3_1_07Strutil15skip_whitespaceERNS0_17basic_string_viewIcSt11char_traitsIcEEE.exit.thread, label %_ZN11OpenImageIO6v3_1_07Strutil15skip_whitespaceERNS0_17basic_string_viewIcSt11char_traitsIcEEE.exit._ZN11OpenImageIO6v3_1_07Strutil15skip_whitespaceERNS0_17basic_string_viewIcSt11char_traitsIcEEE.exit.thread13_crit_edge

_ZN11OpenImageIO6v3_1_07Strutil15skip_whitespaceERNS0_17basic_string_viewIcSt11char_traitsIcEEE.exit._ZN11OpenImageIO6v3_1_07Strutil15skip_whitespaceERNS0_17basic_string_viewIcSt11char_traitsIcEEE.exit.thread13_crit_edge: ; preds = %_ZN11OpenImageIO6v3_1_07Strutil15skip_whitespaceERNS0_17basic_string_viewIcSt11char_traitsIcEEE.exit
  %.pre = load i8, ptr %5, align 1, !tbaa !3
  br label %_ZN11OpenImageIO6v3_1_07Strutil15skip_whitespaceERNS0_17basic_string_viewIcSt11char_traitsIcEEE.exit.thread13

_ZN11OpenImageIO6v3_1_07Strutil15skip_whitespaceERNS0_17basic_string_viewIcSt11char_traitsIcEEE.exit.thread13: ; preds = %.lr.ph.i, %_ZN11OpenImageIO6v3_1_07Strutil15skip_whitespaceERNS0_17basic_string_viewIcSt11char_traitsIcEEE.exit._ZN11OpenImageIO6v3_1_07Strutil15skip_whitespaceERNS0_17basic_string_viewIcSt11char_traitsIcEEE.exit.thread13_crit_edge
  %13 = phi i8 [ %.pre, %_ZN11OpenImageIO6v3_1_07Strutil15skip_whitespaceERNS0_17basic_string_viewIcSt11char_traitsIcEEE.exit._ZN11OpenImageIO6v3_1_07Strutil15skip_whitespaceERNS0_17basic_string_viewIcSt11char_traitsIcEEE.exit.thread13_crit_edge ], [ %9, %.lr.ph.i ]
  %.sroa.0.018 = phi ptr [ %5, %_ZN11OpenImageIO6v3_1_07Strutil15skip_whitespaceERNS0_17basic_string_viewIcSt11char_traitsIcEEE.exit._ZN11OpenImageIO6v3_1_07Strutil15skip_whitespaceERNS0_17basic_string_viewIcSt11char_traitsIcEEE.exit.thread13_crit_edge ], [ %.sroa.0.1, %.lr.ph.i ]
  %.sroa.9.017 = phi i64 [ %7, %_ZN11OpenImageIO6v3_1_07Strutil15skip_whitespaceERNS0_17basic_string_viewIcSt11char_traitsIcEEE.exit._ZN11OpenImageIO6v3_1_07Strutil15skip_whitespaceERNS0_17basic_string_viewIcSt11char_traitsIcEEE.exit.thread13_crit_edge ], [ %.sroa.9.1, %.lr.ph.i ]
  %14 = icmp eq i8 %13, %1
  %brmerge.not = and i1 %3, %14
  br i1 %brmerge.not, label %15, label %_ZN11OpenImageIO6v3_1_07Strutil15skip_whitespaceERNS0_17basic_string_viewIcSt11char_traitsIcEEE.exit.thread

15:                                               ; preds = %_ZN11OpenImageIO6v3_1_07Strutil15skip_whitespaceERNS0_17basic_string_viewIcSt11char_traitsIcEEE.exit.thread13
  %16 = getelementptr inbounds nuw i8, ptr %.sroa.0.018, i64 1
  %17 = add i64 %.sroa.9.017, -1
  store ptr %16, ptr %0, align 8, !tbaa !13
  store i64 %17, ptr %6, align 8, !tbaa !86
  br label %_ZN11OpenImageIO6v3_1_07Strutil15skip_whitespaceERNS0_17basic_string_viewIcSt11char_traitsIcEEE.exit.thread

_ZN11OpenImageIO6v3_1_07Strutil15skip_whitespaceERNS0_17basic_string_viewIcSt11char_traitsIcEEE.exit.thread: ; preds = %10, %8, %_ZN11OpenImageIO6v3_1_07Strutil15skip_whitespaceERNS0_17basic_string_viewIcSt11char_traitsIcEEE.exit.thread13, %_ZN11OpenImageIO6v3_1_07Strutil15skip_whitespaceERNS0_17basic_string_viewIcSt11char_traitsIcEEE.exit, %15
  %.0 = phi i1 [ true, %15 ], [ %14, %_ZN11OpenImageIO6v3_1_07Strutil15skip_whitespaceERNS0_17basic_string_viewIcSt11char_traitsIcEEE.exit.thread13 ], [ false, %_ZN11OpenImageIO6v3_1_07Strutil15skip_whitespaceERNS0_17basic_string_viewIcSt11char_traitsIcEEE.exit ], [ false, %8 ], [ false, %10 ]
  ret i1 %.0
}